; Function Attrs: mustprogress nofree norecurse nosync nounwind willreturn memory(read, inaccessiblemem: none) uwtable
define noundef nonnull align 8 dereferenceable(381) ptr @_ZN8facebook5velox5cache8SsdCache4fileEm(ptr nocapture noundef nonnull readonly align 8 dereferenceable(89) %this, i64 noundef %fileId) local_unnamed_addr #5 align 2 {
entry:
  %numShards_ = getelementptr inbounds i8, ptr %this, i64 32
  %0 = load i32, ptr %numShards_, align 8
  %conv = sext i32 %0 to i64
  %rem = urem i64 %fileId, %conv
  %files_ = getelementptr inbounds i8, ptr %this, i64 40
  %1 = load ptr, ptr %files_, align 8
  %add.ptr.i = getelementptr inbounds %"class.std::unique_ptr.18", ptr %1, i64 %rem
  %2 = load ptr, ptr %add.ptr.i, align 8
  ret ptr %2
}